target datalayout = "e-m:e-p270:32:32-p271:32:32-p272:64:64-i64:64-i128:128-f80:128-n8:16:32:64-S128"
target triple = "x86_64-pc-linux-gnu"

%struct._object = type { i64, ptr }
%"struct.nanobind::detail::nb_inst" = type { %struct._object, i32, i32 }

; Function Attrs: mustprogress uwtable
define noundef ptr @_ZN8nanobind6detail17nb_inst_referenceEP11_typeobjectPvP7_object(ptr noundef %0, ptr noundef %1, ptr noundef %2) #0 {
  %4 = alloca ptr, align 8
  %5 = alloca ptr, align 8
  %6 = alloca ptr, align 8
  %7 = alloca ptr, align 8
  %8 = alloca ptr, align 8
  store ptr %0, ptr %4, align 8
  store ptr %1, ptr %5, align 8
  store ptr %2, ptr %6, align 8
  call void @llvm.lifetime.start.p0(i64 8, ptr %7) #20
  %9 = load ptr, ptr %4, align 8
  %10 = load ptr, ptr %5, align 8
  %11 = call noundef ptr @_ZN8nanobind6detail12inst_new_extEP11_typeobjectPv(ptr noundef %9, ptr noundef %10)
  store ptr %11, ptr %7, align 8
  %12 = load ptr, ptr %7, align 8
  %13 = icmp ne ptr %12, null
  br i1 %13, label %15, label %14

14:                                               ; preds = %3
  call void @_ZN8nanobind6detail18raise_python_errorEv() #24
  unreachable

15:                                               ; preds = %3
  call void @llvm.lifetime.start.p0(i64 8, ptr %8) #20
  %16 = load ptr, ptr %7, align 8
  store ptr %16, ptr %8, align 8
  %17 = load ptr, ptr %8, align 8
  %18 = getelementptr inbounds nuw %"struct.nanobind::detail::nb_inst", ptr %17, i32 0, i32 2
  %19 = load i32, ptr %18, align 4
  %20 = and i32 %19, -33
  %21 = or i32 %20, 0
  store i32 %21, ptr %18, align 4
  %22 = load ptr, ptr %8, align 8
  %23 = getelementptr inbounds nuw %"struct.nanobind::detail::nb_inst", ptr %22, i32 0, i32 2
  %24 = load i32, ptr %23, align 4
  %25 = and i32 %24, -17
  %26 = or i32 %25, 0
  store i32 %26, ptr %23, align 4
  %27 = load ptr, ptr %8, align 8
  %28 = getelementptr inbounds nuw %"struct.nanobind::detail::nb_inst", ptr %27, i32 0, i32 2
  %29 = load i32, ptr %28, align 4
  %30 = and i32 %29, -4
  %31 = or i32 %30, 2
  store i32 %31, ptr %28, align 4
  %32 = load ptr, ptr %6, align 8
  %33 = icmp ne ptr %32, null
  br i1 %33, label %34, label %37

34:                                               ; preds = %15
  %35 = load ptr, ptr %7, align 8
  %36 = load ptr, ptr %6, align 8
  call void @_ZN8nanobind6detail10keep_aliveEP7_objectS2_(ptr noundef %35, ptr noundef %36)
  br label %37

37:                                               ; preds = %34, %15
  %38 = load ptr, ptr %7, align 8
  %39 = load ptr, ptr %5, align 8
  call void @_ZN8nanobind6detailL13inst_registerEP7_objectPv(ptr noundef %38, ptr noundef %39) #20
  %40 = load ptr, ptr %7, align 8
  call void @llvm.lifetime.end.p0(i64 8, ptr %8) #20
  call void @llvm.lifetime.end.p0(i64 8, ptr %7) #20
  ret ptr %40
}