; Function Attrs: mustprogress uwtable
define noundef nonnull ptr @_ZN8nanobind6detail17nb_inst_referenceEP11_typeobjectPvP7_object(ptr noundef %0, ptr noundef %1, ptr noundef %2) local_unnamed_addr #0 {
  %4 = tail call noundef ptr @_ZN8nanobind6detail12inst_new_extEP11_typeobjectPv(ptr noundef %0, ptr noundef %1)
  %.not = icmp eq ptr %4, null
  br i1 %.not, label %5, label %6

5:                                                ; preds = %3
  tail call void @_ZN8nanobind6detail18raise_python_errorEv() #33
  unreachable

6:                                                ; preds = %3
  %7 = getelementptr inbounds nuw i8, ptr %4, i64 20
  %8 = load i32, ptr %7, align 4
  %9 = and i32 %8, -52
  %10 = or disjoint i32 %9, 2
  store i32 %10, ptr %7, align 4
  %.not14 = icmp eq ptr %2, null
  br i1 %.not14, label %12, label %11

11:                                               ; preds = %6
  tail call void @_ZN8nanobind6detail10keep_aliveEP7_objectS2_(ptr noundef nonnull %4, ptr noundef nonnull %2)
  br label %12

12:                                               ; preds = %11, %6
  tail call fastcc void @_ZN8nanobind6detailL13inst_registerEP7_objectPv(ptr noundef %4, ptr noundef %1) #29
  ret ptr %4
}